; Function Attrs: mustprogress nounwind uwtable
define dso_local void @_ZN12Sample_DebugD0Ev(ptr noundef nonnull align 8 dereferenceable(276) %0) unnamed_addr #4 align 2 personality ptr @__gxx_personality_v0 {
  store ptr getelementptr inbounds ({ [25 x ptr] }, ptr @_ZTV12Sample_Debug, i64 0, i32 0, i64 2), ptr %0, align 8
  %2 = getelementptr inbounds i8, ptr %0, i64 200
  %3 = load ptr, ptr %2, align 8
  invoke void @_Z24rcFreeCompactHeightfieldP20rcCompactHeightfield(ptr noundef %3)
          to label %4 unwind label %10

4:                                                ; preds = %1
  %5 = getelementptr inbounds i8, ptr %0, i64 208
  %6 = load ptr, ptr %5, align 8
  invoke void @_Z16rcFreeContourSetP12rcContourSet(ptr noundef %6)
          to label %7 unwind label %10

7:                                                ; preds = %4
  %8 = getelementptr inbounds i8, ptr %0, i64 216
  %9 = load ptr, ptr %8, align 8
  invoke void @_Z14rcFreePolyMeshP10rcPolyMesh(ptr noundef %9)
          to label %_ZN12Sample_DebugD2Ev.exit unwind label %10

10:                                               ; preds = %7, %4, %1
  %11 = landingpad { ptr, i32 }
          catch ptr null
  %12 = extractvalue { ptr, i32 } %11, 0
  tail call void @__clang_call_terminate(ptr %12) #13
  unreachable

_ZN12Sample_DebugD2Ev.exit:                       ; preds = %7
  tail call void @_ZN6SampleD2Ev(ptr noundef nonnull align 8 dereferenceable(200) %0) #12
  tail call void @_ZdlPv(ptr noundef nonnull %0) #14
  ret void
}